target datalayout = "e-m:e-p270:32:32-p271:32:32-p272:64:64-i64:64-i128:128-f80:128-n8:16:32:64-S128"
target triple = "x86_64-pc-linux-gnu"

%struct.DdManager = type { %struct.DdNode, ptr, ptr, ptr, ptr, ptr, ptr, ptr, i32, i32, double, double, double, i32, i32, i32, i32, i32, i32, ptr, ptr, %struct.DdSubtable, i32, i32, i32, i32, i32, i32, i32, double, i32, i32, i32, ptr, i64, double, i32, ptr, ptr, ptr, ptr, ptr, ptr, ptr, i32, ptr, ptr, ptr, ptr, ptr, ptr, i32, i32, i32, double, i32, i32, i32, i32, double, double, i32, i32, i32, i32, i32, i32, i32, i32, i32, ptr, ptr, i32, i32, i32, i32, i32, i32, ptr, ptr, ptr, ptr, ptr, ptr, ptr, ptr, i32, i64, i64, i64, i32, i64, i64, double, double, double, double, double, double, i32, ptr, ptr, i64 }
%struct.DdNode = type { i32, i32, ptr, %union.anon, i64 }
%union.anon = type { %struct.DdChildren }
%struct.DdChildren = type { ptr, ptr }
%struct.DdSubtable = type { ptr, i32, i32, i32, i32, i32, i32, i32, i32, i32, i32, i32 }

; Function Attrs: nounwind uwtable
define ptr @extraZddCombination(ptr noundef %0, ptr noundef %1, i32 noundef %2) #0 {
  %4 = alloca ptr, align 8
  %5 = alloca ptr, align 8
  %6 = alloca ptr, align 8
  %7 = alloca i32, align 4
  %8 = alloca i32, align 4
  %9 = alloca i32, align 4
  %10 = alloca ptr, align 8
  %11 = alloca ptr, align 8
  %12 = alloca i32, align 4
  store ptr %0, ptr %5, align 8, !tbaa !3
  store ptr %1, ptr %6, align 8, !tbaa !10
  store i32 %2, ptr %7, align 4, !tbaa !37
  call void @llvm.lifetime.start.p0(i64 4, ptr %8) #10
  call void @llvm.lifetime.start.p0(i64 4, ptr %9) #10
  call void @llvm.lifetime.start.p0(i64 8, ptr %10) #10
  call void @llvm.lifetime.start.p0(i64 8, ptr %11) #10
  %13 = load ptr, ptr %5, align 8, !tbaa !3
  %14 = getelementptr inbounds nuw %struct.DdManager, ptr %13, i32 0, i32 1
  %15 = load ptr, ptr %14, align 8, !tbaa !41
  store ptr %15, ptr %10, align 8, !tbaa !8
  %16 = load ptr, ptr %10, align 8, !tbaa !8
  %17 = ptrtoint ptr %16 to i64
  %18 = and i64 %17, -2
  %19 = inttoptr i64 %18 to ptr
  %20 = getelementptr inbounds nuw %struct.DdNode, ptr %19, i32 0, i32 1
  %21 = load i32, ptr %20, align 4, !tbaa !34
  %22 = add i32 %21, 1
  store i32 %22, ptr %20, align 4, !tbaa !34
  %23 = load i32, ptr %7, align 4, !tbaa !37
  %24 = sub nsw i32 %23, 1
  store i32 %24, ptr %8, align 4, !tbaa !37
  br label %25

25:                                               ; preds = %81, %3
  %26 = load i32, ptr %8, align 4, !tbaa !37
  %27 = icmp sge i32 %26, 0
  br i1 %27, label %28, label %84

28:                                               ; preds = %25
  %29 = load i32, ptr %8, align 4, !tbaa !37
  %30 = load ptr, ptr %5, align 8, !tbaa !3
  %31 = getelementptr inbounds nuw %struct.DdManager, ptr %30, i32 0, i32 16
  %32 = load i32, ptr %31, align 4, !tbaa !58
  %33 = icmp sge i32 %29, %32
  br i1 %33, label %34, label %36

34:                                               ; preds = %28
  %35 = load i32, ptr %8, align 4, !tbaa !37
  br label %44

36:                                               ; preds = %28
  %37 = load ptr, ptr %5, align 8, !tbaa !3
  %38 = getelementptr inbounds nuw %struct.DdManager, ptr %37, i32 0, i32 40
  %39 = load ptr, ptr %38, align 8, !tbaa !99
  %40 = load i32, ptr %8, align 4, !tbaa !37
  %41 = sext i32 %40 to i64
  %42 = getelementptr inbounds i32, ptr %39, i64 %41
  %43 = load i32, ptr %42, align 4, !tbaa !37
  br label %44

44:                                               ; preds = %36, %34
  %45 = phi i32 [ %35, %34 ], [ %43, %36 ]
  store i32 %45, ptr %9, align 4, !tbaa !37
  %46 = load ptr, ptr %6, align 8, !tbaa !10
  %47 = load i32, ptr %9, align 4, !tbaa !37
  %48 = sext i32 %47 to i64
  %49 = getelementptr inbounds i32, ptr %46, i64 %48
  %50 = load i32, ptr %49, align 4, !tbaa !37
  %51 = icmp eq i32 %50, 1
  br i1 %51, label %52, label %80

52:                                               ; preds = %44
  %53 = load ptr, ptr %5, align 8, !tbaa !3
  %54 = load i32, ptr %9, align 4, !tbaa !37
  %55 = load ptr, ptr %10, align 8, !tbaa !8
  store ptr %55, ptr %11, align 8, !tbaa !8
  %56 = load ptr, ptr %5, align 8, !tbaa !3
  %57 = getelementptr inbounds nuw %struct.DdManager, ptr %56, i32 0, i32 2
  %58 = load ptr, ptr %57, align 8, !tbaa !76
  %59 = call ptr @cuddZddGetNode(ptr noundef %53, i32 noundef %54, ptr noundef %55, ptr noundef %58)
  store ptr %59, ptr %10, align 8, !tbaa !8
  %60 = load ptr, ptr %10, align 8, !tbaa !8
  %61 = icmp eq ptr %60, null
  br i1 %61, label %62, label %65

62:                                               ; preds = %52
  %63 = load ptr, ptr %5, align 8, !tbaa !3
  %64 = load ptr, ptr %11, align 8, !tbaa !8
  call void @Cudd_RecursiveDerefZdd(ptr noundef %63, ptr noundef %64)
  store ptr null, ptr %4, align 8
  store i32 1, ptr %12, align 4
  br label %93

65:                                               ; preds = %52
  %66 = load ptr, ptr %10, align 8, !tbaa !8
  %67 = ptrtoint ptr %66 to i64
  %68 = and i64 %67, -2
  %69 = inttoptr i64 %68 to ptr
  %70 = getelementptr inbounds nuw %struct.DdNode, ptr %69, i32 0, i32 1
  %71 = load i32, ptr %70, align 4, !tbaa !34
  %72 = add i32 %71, 1
  store i32 %72, ptr %70, align 4, !tbaa !34
  %73 = load ptr, ptr %11, align 8, !tbaa !8
  %74 = ptrtoint ptr %73 to i64
  %75 = and i64 %74, -2
  %76 = inttoptr i64 %75 to ptr
  %77 = getelementptr inbounds nuw %struct.DdNode, ptr %76, i32 0, i32 1
  %78 = load i32, ptr %77, align 4, !tbaa !34
  %79 = add i32 %78, -1
  store i32 %79, ptr %77, align 4, !tbaa !34
  br label %80

80:                                               ; preds = %65, %44
  br label %81

81:                                               ; preds = %80
  %82 = load i32, ptr %8, align 4, !tbaa !37
  %83 = add nsw i32 %82, -1
  store i32 %83, ptr %8, align 4, !tbaa !37
  br label %25, !llvm.loop !100

84:                                               ; preds = %25
  %85 = load ptr, ptr %10, align 8, !tbaa !8
  %86 = ptrtoint ptr %85 to i64
  %87 = and i64 %86, -2
  %88 = inttoptr i64 %87 to ptr
  %89 = getelementptr inbounds nuw %struct.DdNode, ptr %88, i32 0, i32 1
  %90 = load i32, ptr %89, align 4, !tbaa !34
  %91 = add i32 %90, -1
  store i32 %91, ptr %89, align 4, !tbaa !34
  %92 = load ptr, ptr %10, align 8, !tbaa !8
  store ptr %92, ptr %4, align 8
  store i32 1, ptr %12, align 4
  br label %93

93:                                               ; preds = %84, %62
  call void @llvm.lifetime.end.p0(i64 8, ptr %11) #10
  call void @llvm.lifetime.end.p0(i64 8, ptr %10) #10
  call void @llvm.lifetime.end.p0(i64 4, ptr %9) #10
  call void @llvm.lifetime.end.p0(i64 4, ptr %8) #10
  %94 = load ptr, ptr %4, align 8
  ret ptr %94
}

; Function Attrs: nounwind uwtable
define ptr @Extra_zddCombination(ptr noundef %0, ptr noundef %1, i32 noundef %2) #0 {
  %4 = alloca ptr, align 8
  %5 = alloca ptr, align 8
  %6 = alloca i32, align 4
  %7 = alloca ptr, align 8
  store ptr %0, ptr %4, align 8, !tbaa !3
  store ptr %1, ptr %5, align 8, !tbaa !10
  store i32 %2, ptr %6, align 4, !tbaa !37
  call void @llvm.lifetime.start.p0(i64 8, ptr %7) #10
  br label %8

8:                                                ; preds = %15, %3
  %9 = load ptr, ptr %4, align 8, !tbaa !3
  %10 = getelementptr inbounds nuw %struct.DdManager, ptr %9, i32 0, i32 55
  store i32 0, ptr %10, align 8, !tbaa !12
  %11 = load ptr, ptr %4, align 8, !tbaa !3
  %12 = load ptr, ptr %5, align 8, !tbaa !10
  %13 = load i32, ptr %6, align 4, !tbaa !37
  %14 = call ptr @extraZddCombination(ptr noundef %11, ptr noundef %12, i32 noundef %13)
  store ptr %14, ptr %7, align 8, !tbaa !8
  br label %15

15:                                               ; preds = %8
  %16 = load ptr, ptr %4, align 8, !tbaa !3
  %17 = getelementptr inbounds nuw %struct.DdManager, ptr %16, i32 0, i32 55
  %18 = load i32, ptr %17, align 8, !tbaa !12
  %19 = icmp eq i32 %18, 1
  br i1 %19, label %8, label %20, !llvm.loop !101

20:                                               ; preds = %15
  %21 = load ptr, ptr %7, align 8, !tbaa !8
  call void @llvm.lifetime.end.p0(i64 8, ptr %7) #10
  ret ptr %21
}

; Function Attrs: nounwind uwtable
define ptr @Extra_zddRandomSet(ptr noundef %0, i32 noundef %1, i32 noundef %2, double noundef %3) #0 {
  %5 = alloca ptr, align 8
  %6 = alloca ptr, align 8
  %7 = alloca i32, align 4
  %8 = alloca i32, align 4
  %9 = alloca double, align 8
  %10 = alloca ptr, align 8
  %11 = alloca ptr, align 8
  %12 = alloca ptr, align 8
  %13 = alloca i32, align 4
  %14 = alloca i32, align 4
  %15 = alloca i32, align 4
  %16 = alloca ptr, align 8
  %17 = alloca i32, align 4
  store ptr %0, ptr %6, align 8, !tbaa !3
  store i32 %1, ptr %7, align 4, !tbaa !37
  store i32 %2, ptr %8, align 4, !tbaa !37
  store double %3, ptr %9, align 8, !tbaa !102
  call void @llvm.lifetime.start.p0(i64 8, ptr %10) #10
  call void @llvm.lifetime.start.p0(i64 8, ptr %11) #10
  call void @llvm.lifetime.start.p0(i64 8, ptr %12) #10
  call void @llvm.lifetime.start.p0(i64 4, ptr %13) #10
  call void @llvm.lifetime.start.p0(i64 4, ptr %14) #10
  call void @llvm.lifetime.start.p0(i64 4, ptr %15) #10
  call void @llvm.lifetime.start.p0(i64 8, ptr %16) #10
  %18 = load i32, ptr %7, align 4, !tbaa !37
  %19 = icmp sle i32 %18, 0
  br i1 %19, label %29, label %20

20:                                               ; preds = %4
  %21 = load i32, ptr %8, align 4, !tbaa !37
  %22 = icmp sle i32 %21, 0
  br i1 %22, label %29, label %23

23:                                               ; preds = %20
  %24 = load double, ptr %9, align 8, !tbaa !102
  %25 = fcmp olt double %24, 0.000000e+00
  br i1 %25, label %29, label %26

26:                                               ; preds = %23
  %27 = load double, ptr %9, align 8, !tbaa !102
  %28 = fcmp ogt double %27, 1.000000e+00
  br i1 %28, label %29, label %30

29:                                               ; preds = %26, %23, %20, %4
  store ptr null, ptr %5, align 8
  store i32 1, ptr %17, align 4
  br label %126

30:                                               ; preds = %26
  %31 = load i32, ptr %7, align 4, !tbaa !37
  %32 = sext i32 %31 to i64
  %33 = mul i64 4, %32
  %34 = call noalias ptr @malloc(i64 noundef %33) #11
  store ptr %34, ptr %16, align 8, !tbaa !10
  %35 = load ptr, ptr %16, align 8, !tbaa !10
  %36 = icmp eq ptr %35, null
  br i1 %36, label %37, label %40

37:                                               ; preds = %30
  %38 = load ptr, ptr %6, align 8, !tbaa !3
  %39 = getelementptr inbounds nuw %struct.DdManager, ptr %38, i32 0, i32 86
  store i32 1, ptr %39, align 8, !tbaa !68
  store ptr null, ptr %5, align 8
  store i32 1, ptr %17, align 4
  br label %126

40:                                               ; preds = %30
  %41 = load ptr, ptr %6, align 8, !tbaa !3
  %42 = getelementptr inbounds nuw %struct.DdManager, ptr %41, i32 0, i32 2
  %43 = load ptr, ptr %42, align 8, !tbaa !76
  store ptr %43, ptr %10, align 8, !tbaa !8
  %44 = load ptr, ptr %10, align 8, !tbaa !8
  call void @Cudd_Ref(ptr noundef %44)
  %45 = call i64 @time(ptr noundef null) #10
  call void @Cudd_Srandom(i64 noundef %45)
  %46 = load double, ptr %9, align 8, !tbaa !102
  %47 = fmul double %46, 0x41DFFFFFEA400000
  %48 = fptosi double %47 to i32
  store i32 %48, ptr %15, align 4, !tbaa !37
  store i32 0, ptr %13, align 4, !tbaa !37
  br label %49

49:                                               ; preds = %114, %40
  %50 = load i32, ptr %13, align 4, !tbaa !37
  %51 = load i32, ptr %8, align 4, !tbaa !37
  %52 = icmp slt i32 %50, %51
  br i1 %52, label %53, label %117

53:                                               ; preds = %49
  store i32 0, ptr %14, align 4, !tbaa !37
  br label %54

54:                                               ; preds = %74, %53
  %55 = load i32, ptr %14, align 4, !tbaa !37
  %56 = load i32, ptr %7, align 4, !tbaa !37
  %57 = icmp slt i32 %55, %56
  br i1 %57, label %58, label %77

58:                                               ; preds = %54
  %59 = call i64 @Cudd_Random()
  %60 = load i32, ptr %15, align 4, !tbaa !37
  %61 = sext i32 %60 to i64
  %62 = icmp sle i64 %59, %61
  br i1 %62, label %63, label %68

63:                                               ; preds = %58
  %64 = load ptr, ptr %16, align 8, !tbaa !10
  %65 = load i32, ptr %14, align 4, !tbaa !37
  %66 = sext i32 %65 to i64
  %67 = getelementptr inbounds i32, ptr %64, i64 %66
  store i32 1, ptr %67, align 4, !tbaa !37
  br label %73

68:                                               ; preds = %58
  %69 = load ptr, ptr %16, align 8, !tbaa !10
  %70 = load i32, ptr %14, align 4, !tbaa !37
  %71 = sext i32 %70 to i64
  %72 = getelementptr inbounds i32, ptr %69, i64 %71
  store i32 0, ptr %72, align 4, !tbaa !37
  br label %73

73:                                               ; preds = %68, %63
  br label %74

74:                                               ; preds = %73
  %75 = load i32, ptr %14, align 4, !tbaa !37
  %76 = add nsw i32 %75, 1
  store i32 %76, ptr %14, align 4, !tbaa !37
  br label %54, !llvm.loop !103

77:                                               ; preds = %54
  %78 = load ptr, ptr %6, align 8, !tbaa !3
  %79 = load ptr, ptr %16, align 8, !tbaa !10
  %80 = load i32, ptr %7, align 4, !tbaa !37
  %81 = call ptr @Extra_zddCombination(ptr noundef %78, ptr noundef %79, i32 noundef %80)
  store ptr %81, ptr %11, align 8, !tbaa !8
  %82 = load ptr, ptr %11, align 8, !tbaa !8
  call void @Cudd_Ref(ptr noundef %82)
  %83 = load i32, ptr %13, align 4, !tbaa !37
  %84 = icmp ne i32 %83, 0
  br i1 %84, label %85, label %104

85:                                               ; preds = %77
  %86 = load ptr, ptr %6, align 8, !tbaa !3
  %87 = load ptr, ptr %10, align 8, !tbaa !8
  %88 = load ptr, ptr %11, align 8, !tbaa !8
  %89 = call ptr @Cudd_zddDiff(ptr noundef %86, ptr noundef %87, ptr noundef %88)
  store ptr %89, ptr %12, align 8, !tbaa !8
  %90 = load ptr, ptr %12, align 8, !tbaa !8
  call void @Cudd_Ref(ptr noundef %90)
  %91 = load ptr, ptr %12, align 8, !tbaa !8
  %92 = load ptr, ptr %10, align 8, !tbaa !8
  %93 = icmp ne ptr %91, %92
  br i1 %93, label %94, label %101

94:                                               ; preds = %85
  %95 = load ptr, ptr %6, align 8, !tbaa !3
  %96 = load ptr, ptr %12, align 8, !tbaa !8
  call void @Cudd_RecursiveDerefZdd(ptr noundef %95, ptr noundef %96)
  %97 = load ptr, ptr %6, align 8, !tbaa !3
  %98 = load ptr, ptr %11, align 8, !tbaa !8
  call void @Cudd_RecursiveDerefZdd(ptr noundef %97, ptr noundef %98)
  %99 = load i32, ptr %13, align 4, !tbaa !37
  %100 = add nsw i32 %99, -1
  store i32 %100, ptr %13, align 4, !tbaa !37
  br label %114

101:                                              ; preds = %85
  %102 = load ptr, ptr %12, align 8, !tbaa !8
  call void @Cudd_Deref(ptr noundef %102)
  br label %103

103:                                              ; preds = %101
  br label %104

104:                                              ; preds = %103, %77
  %105 = load ptr, ptr %6, align 8, !tbaa !3
  %106 = load ptr, ptr %10, align 8, !tbaa !8
  store ptr %106, ptr %12, align 8, !tbaa !8
  %107 = load ptr, ptr %11, align 8, !tbaa !8
  %108 = call ptr @Cudd_zddUnion(ptr noundef %105, ptr noundef %106, ptr noundef %107)
  store ptr %108, ptr %10, align 8, !tbaa !8
  %109 = load ptr, ptr %10, align 8, !tbaa !8
  call void @Cudd_Ref(ptr noundef %109)
  %110 = load ptr, ptr %6, align 8, !tbaa !3
  %111 = load ptr, ptr %12, align 8, !tbaa !8
  call void @Cudd_RecursiveDerefZdd(ptr noundef %110, ptr noundef %111)
  %112 = load ptr, ptr %6, align 8, !tbaa !3
  %113 = load ptr, ptr %11, align 8, !tbaa !8
  call void @Cudd_RecursiveDerefZdd(ptr noundef %112, ptr noundef %113)
  br label %114

114:                                              ; preds = %104, %94
  %115 = load i32, ptr %13, align 4, !tbaa !37
  %116 = add nsw i32 %115, 1
  store i32 %116, ptr %13, align 4, !tbaa !37
  br label %49, !llvm.loop !104

117:                                              ; preds = %49
  %118 = load ptr, ptr %16, align 8, !tbaa !10
  %119 = icmp ne ptr %118, null
  br i1 %119, label %120, label %122

120:                                              ; preds = %117
  %121 = load ptr, ptr %16, align 8, !tbaa !10
  call void @free(ptr noundef %121) #10
  store ptr null, ptr %16, align 8, !tbaa !10
  br label %123

122:                                              ; preds = %117
  br label %123

123:                                              ; preds = %122, %120
  %124 = load ptr, ptr %10, align 8, !tbaa !8
  call void @Cudd_Deref(ptr noundef %124)
  %125 = load ptr, ptr %10, align 8, !tbaa !8
  store ptr %125, ptr %5, align 8
  store i32 1, ptr %17, align 4
  br label %126

126:                                              ; preds = %123, %37, %29
  call void @llvm.lifetime.end.p0(i64 8, ptr %16) #10
  call void @llvm.lifetime.end.p0(i64 4, ptr %15) #10
  call void @llvm.lifetime.end.p0(i64 4, ptr %14) #10
  call void @llvm.lifetime.end.p0(i64 4, ptr %13) #10
  call void @llvm.lifetime.end.p0(i64 8, ptr %12) #10
  call void @llvm.lifetime.end.p0(i64 8, ptr %11) #10
  call void @llvm.lifetime.end.p0(i64 8, ptr %10) #10
  %127 = load ptr, ptr %5, align 8
  ret ptr %127
}