; Function Attrs: nounwind uwtable
define ptr @Extra_zddRandomSet(ptr noundef %0, i32 noundef %1, i32 noundef %2, double noundef %3) local_unnamed_addr #0 {
  %5 = icmp slt i32 %1, 1
  %6 = icmp slt i32 %2, 1
  %or.cond = or i1 %5, %6
  %7 = fcmp olt double %3, 0.000000e+00
  %or.cond3 = or i1 %or.cond, %7
  %8 = fcmp ogt double %3, 1.000000e+00
  %or.cond5 = or i1 %8, %or.cond3
  br i1 %or.cond5, label %83, label %9

9:                                                ; preds = %4
  %10 = zext nneg i32 %1 to i64
  %11 = shl nuw nsw i64 %10, 2
  %12 = tail call noalias ptr @malloc(i64 noundef %11) #20
  %13 = icmp eq ptr %12, null
  br i1 %13, label %14, label %.preheader.lr.ph

14:                                               ; preds = %9
  %15 = getelementptr inbounds nuw i8, ptr %0, i64 624
  store i32 1, ptr %15, align 8, !tbaa !56
  br label %83

.preheader.lr.ph:                                 ; preds = %9
  %16 = getelementptr inbounds nuw i8, ptr %0, i64 48
  %17 = load ptr, ptr %16, align 8, !tbaa !63
  tail call void @Cudd_Ref(ptr noundef %17) #19
  %18 = tail call i64 @time(ptr noundef null) #19
  tail call void @Cudd_Srandom(i64 noundef %18) #19
  %19 = fmul double %3, 0x41DFFFFFEA400000
  %20 = fptosi double %19 to i32
  %21 = sext i32 %20 to i64
  %22 = getelementptr inbounds nuw i8, ptr %0, i64 448
  %23 = getelementptr inbounds nuw i8, ptr %0, i64 40
  %24 = getelementptr inbounds nuw i8, ptr %0, i64 140
  %25 = getelementptr inbounds nuw i8, ptr %0, i64 336
  br label %.preheader

.preheader:                                       ; preds = %.preheader.lr.ph, %81
  %.05670 = phi i32 [ 0, %.preheader.lr.ph ], [ %.1, %81 ]
  %.05769 = phi ptr [ %17, %.preheader.lr.ph ], [ %.158, %81 ]
  br label %.lr.ph

.lr.ph:                                           ; preds = %.preheader, %.lr.ph
  %indvars.iv = phi i64 [ 0, %.preheader ], [ %indvars.iv.next, %.lr.ph ]
  %26 = tail call i64 @Cudd_Random() #19
  %.not66 = icmp sle i64 %26, %21
  %spec.select = zext i1 %.not66 to i32
  %27 = getelementptr inbounds nuw i32, ptr %12, i64 %indvars.iv
  store i32 %spec.select, ptr %27, align 4, !tbaa !31
  %indvars.iv.next = add nuw nsw i64 %indvars.iv, 1
  %exitcond.not = icmp eq i64 %indvars.iv.next, %10
  br i1 %exitcond.not, label %.lr.ph.i.us.i, label %.lr.ph, !llvm.loop !87

.lr.ph.i.us.i:                                    ; preds = %.lr.ph, %extraZddCombination.exit.us.i
  store i32 0, ptr %22, align 8, !tbaa !3
  %28 = load ptr, ptr %23, align 8, !tbaa !34
  %29 = ptrtoint ptr %28 to i64
  %30 = and i64 %29, -2
  %31 = inttoptr i64 %30 to ptr
  %32 = getelementptr inbounds nuw i8, ptr %31, i64 4
  %33 = load i32, ptr %32, align 4, !tbaa !24
  %34 = add i32 %33, 1
  store i32 %34, ptr %32, align 4, !tbaa !24
  br label %35

35:                                               ; preds = %66, %.lr.ph.i.us.i
  %indvars.iv.i.us.i = phi i64 [ %10, %.lr.ph.i.us.i ], [ %indvars.iv.next.i.us.i, %66 ]
  %.02329.i.us.i = phi ptr [ %28, %.lr.ph.i.us.i ], [ %.1.i.us.i, %66 ]
  %indvars.iv.next.i.us.i = add nsw i64 %indvars.iv.i.us.i, -1
  %36 = load i32, ptr %24, align 4, !tbaa !49
  %37 = sext i32 %36 to i64
  %.not.not.i.us.i = icmp sgt i64 %indvars.iv.i.us.i, %37
  %38 = trunc nuw nsw i64 %indvars.iv.next.i.us.i to i32
  br i1 %.not.not.i.us.i, label %43, label %39

39:                                               ; preds = %35
  %40 = load ptr, ptr %25, align 8, !tbaa !84
  %41 = getelementptr inbounds nuw i32, ptr %40, i64 %indvars.iv.next.i.us.i
  %42 = load i32, ptr %41, align 4, !tbaa !31
  br label %43

43:                                               ; preds = %39, %35
  %44 = phi i32 [ %42, %39 ], [ %38, %35 ]
  %45 = sext i32 %44 to i64
  %46 = getelementptr inbounds i32, ptr %12, i64 %45
  %47 = load i32, ptr %46, align 4, !tbaa !31
  %48 = icmp eq i32 %47, 1
  br i1 %48, label %49, label %66

49:                                               ; preds = %43
  %50 = load ptr, ptr %16, align 8, !tbaa !63
  %51 = tail call ptr @cuddZddGetNode(ptr noundef nonnull %0, i32 noundef %44, ptr noundef %.02329.i.us.i, ptr noundef %50) #19
  %52 = icmp eq ptr %51, null
  br i1 %52, label %71, label %53

53:                                               ; preds = %49
  %54 = ptrtoint ptr %51 to i64
  %55 = and i64 %54, -2
  %56 = inttoptr i64 %55 to ptr
  %57 = getelementptr inbounds nuw i8, ptr %56, i64 4
  %58 = load i32, ptr %57, align 4, !tbaa !24
  %59 = add i32 %58, 1
  store i32 %59, ptr %57, align 4, !tbaa !24
  %60 = ptrtoint ptr %.02329.i.us.i to i64
  %61 = and i64 %60, -2
  %62 = inttoptr i64 %61 to ptr
  %63 = getelementptr inbounds nuw i8, ptr %62, i64 4
  %64 = load i32, ptr %63, align 4, !tbaa !24
  %65 = add i32 %64, -1
  store i32 %65, ptr %63, align 4, !tbaa !24
  br label %66

66:                                               ; preds = %53, %43
  %.1.i.us.i = phi ptr [ %51, %53 ], [ %.02329.i.us.i, %43 ]
  %67 = icmp samesign ugt i64 %indvars.iv.i.us.i, 1
  br i1 %67, label %35, label %._crit_edge.loopexit.i.us.i, !llvm.loop !85

._crit_edge.loopexit.i.us.i:                      ; preds = %66
  %.pre.i.us.i = ptrtoint ptr %.1.i.us.i to i64
  %.pre33.i.us.i = and i64 %.pre.i.us.i, -2
  %.pre35.i.us.i = inttoptr i64 %.pre33.i.us.i to ptr
  %68 = getelementptr inbounds nuw i8, ptr %.pre35.i.us.i, i64 4
  %69 = load i32, ptr %68, align 4, !tbaa !24
  %70 = add i32 %69, -1
  store i32 %70, ptr %68, align 4, !tbaa !24
  br label %extraZddCombination.exit.us.i

71:                                               ; preds = %49
  tail call void @Cudd_RecursiveDerefZdd(ptr noundef nonnull %0, ptr noundef %.02329.i.us.i) #19
  br label %extraZddCombination.exit.us.i

extraZddCombination.exit.us.i:                    ; preds = %71, %._crit_edge.loopexit.i.us.i
  %.0.i.us.i = phi ptr [ null, %71 ], [ %.1.i.us.i, %._crit_edge.loopexit.i.us.i ]
  %72 = load i32, ptr %22, align 8, !tbaa !3
  %73 = icmp eq i32 %72, 1
  br i1 %73, label %.lr.ph.i.us.i, label %Extra_zddCombination.exit.loopexit, !llvm.loop !86

Extra_zddCombination.exit.loopexit:               ; preds = %extraZddCombination.exit.us.i
  tail call void @Cudd_Ref(ptr noundef %.0.i.us.i) #19
  %.not = icmp eq i32 %.05670, 0
  br i1 %.not, label %78, label %74

74:                                               ; preds = %Extra_zddCombination.exit.loopexit
  %75 = tail call ptr @Cudd_zddDiff(ptr noundef nonnull %0, ptr noundef %.05769, ptr noundef %.0.i.us.i) #19
  tail call void @Cudd_Ref(ptr noundef %75) #19
  %.not65 = icmp eq ptr %75, %.05769
  br i1 %.not65, label %77, label %76

76:                                               ; preds = %74
  tail call void @Cudd_RecursiveDerefZdd(ptr noundef nonnull %0, ptr noundef %75) #19
  tail call void @Cudd_RecursiveDerefZdd(ptr noundef nonnull %0, ptr noundef %.0.i.us.i) #19
  br label %81

77:                                               ; preds = %74
  tail call void @Cudd_Deref(ptr noundef %75) #19
  br label %78

78:                                               ; preds = %77, %Extra_zddCombination.exit.loopexit
  %79 = tail call ptr @Cudd_zddUnion(ptr noundef nonnull %0, ptr noundef %.05769, ptr noundef %.0.i.us.i) #19
  tail call void @Cudd_Ref(ptr noundef %79) #19
  tail call void @Cudd_RecursiveDerefZdd(ptr noundef nonnull %0, ptr noundef %.05769) #19
  tail call void @Cudd_RecursiveDerefZdd(ptr noundef nonnull %0, ptr noundef %.0.i.us.i) #19
  %80 = add nsw i32 %.05670, 1
  br label %81

81:                                               ; preds = %78, %76
  %.158 = phi ptr [ %.05769, %76 ], [ %79, %78 ]
  %.1 = phi i32 [ %.05670, %76 ], [ %80, %78 ]
  %82 = icmp slt i32 %.1, %2
  br i1 %82, label %.preheader, label %._crit_edge71, !llvm.loop !88

._crit_edge71:                                    ; preds = %81
  tail call void @free(ptr noundef %12) #19
  tail call void @Cudd_Deref(ptr noundef %.158) #19
  br label %83

83:                                               ; preds = %4, %._crit_edge71, %14
  %.0 = phi ptr [ null, %14 ], [ %.158, %._crit_edge71 ], [ null, %4 ]
  ret ptr %.0
}